; Function Attrs: nounwind uwtable
define internal range(i32 -2147483648, 1) i32 @init() #2 {
  %1 = alloca [4 x i32], align 16
  %2 = alloca [4 x %union.OnigValue], align 16
  call void @llvm.lifetime.start.p0(i64 16, ptr nonnull %1) #5
  call void @llvm.lifetime.start.p0(i64 64, ptr nonnull %2) #5
  %3 = tail call i32 @onigenc_str_bytelen_null(ptr noundef nonnull @OnigEncodingASCII, ptr noundef nonnull @.str.1) #5
  %4 = sext i32 %3 to i64
  %5 = getelementptr inbounds i8, ptr @.str.1, i64 %4
  %6 = tail call i32 @onig_set_callout_of_name(ptr noundef nonnull @OnigEncodingASCII, i32 noundef 0, ptr noundef nonnull @.str.1, ptr noundef nonnull %5, i32 noundef 1, ptr noundef nonnull @onig_builtin_fail, ptr noundef null, i32 noundef 0, ptr noundef null, i32 noundef 0, ptr noundef null) #5
  %7 = icmp sgt i32 %6, -1
  br i1 %7, label %8, label %45

8:                                                ; preds = %0
  %9 = tail call i32 @onigenc_str_bytelen_null(ptr noundef nonnull @OnigEncodingASCII, ptr noundef nonnull @.str.2) #5
  %10 = sext i32 %9 to i64
  %11 = getelementptr inbounds i8, ptr @.str.2, i64 %10
  %12 = tail call i32 @onig_set_callout_of_name(ptr noundef nonnull @OnigEncodingASCII, i32 noundef 0, ptr noundef nonnull @.str.2, ptr noundef nonnull %11, i32 noundef 1, ptr noundef nonnull @onig_builtin_mismatch, ptr noundef null, i32 noundef 0, ptr noundef null, i32 noundef 0, ptr noundef null) #5
  %13 = icmp sgt i32 %12, -1
  br i1 %13, label %14, label %45

14:                                               ; preds = %8
  store i32 17, ptr %1, align 16, !tbaa !8
  %15 = getelementptr inbounds nuw i8, ptr %1, i64 4
  store i32 2, ptr %15, align 4, !tbaa !8
  store i32 88, ptr %2, align 16, !tbaa !10
  %16 = tail call i32 @onigenc_str_bytelen_null(ptr noundef nonnull @OnigEncodingASCII, ptr noundef nonnull @.str.3) #5
  %17 = sext i32 %16 to i64
  %18 = getelementptr inbounds i8, ptr @.str.3, i64 %17
  %19 = call i32 @onig_set_callout_of_name(ptr noundef nonnull @OnigEncodingASCII, i32 noundef 0, ptr noundef nonnull @.str.3, ptr noundef nonnull %18, i32 noundef 3, ptr noundef nonnull @onig_builtin_max, ptr noundef null, i32 noundef 2, ptr noundef nonnull %1, i32 noundef 1, ptr noundef nonnull %2) #5
  %20 = icmp sgt i32 %19, -1
  br i1 %20, label %21, label %45

21:                                               ; preds = %14
  store i32 1, ptr %1, align 16, !tbaa !8
  store i64 -3, ptr %2, align 16, !tbaa !10
  %22 = call i32 @onigenc_str_bytelen_null(ptr noundef nonnull @OnigEncodingASCII, ptr noundef nonnull @.str.4) #5
  %23 = sext i32 %22 to i64
  %24 = getelementptr inbounds i8, ptr @.str.4, i64 %23
  %25 = call i32 @onig_set_callout_of_name(ptr noundef nonnull @OnigEncodingASCII, i32 noundef 0, ptr noundef nonnull @.str.4, ptr noundef nonnull %24, i32 noundef 1, ptr noundef nonnull @onig_builtin_error, ptr noundef null, i32 noundef 1, ptr noundef nonnull %1, i32 noundef 1, ptr noundef nonnull %2) #5
  %26 = icmp sgt i32 %25, -1
  br i1 %26, label %27, label %45

27:                                               ; preds = %21
  store i32 2, ptr %1, align 16, !tbaa !8
  store i32 62, ptr %2, align 16, !tbaa !10
  %28 = call i32 @onigenc_str_bytelen_null(ptr noundef nonnull @OnigEncodingASCII, ptr noundef nonnull @.str.5) #5
  %29 = sext i32 %28 to i64
  %30 = getelementptr inbounds i8, ptr @.str.5, i64 %29
  %31 = call i32 @onig_set_callout_of_name(ptr noundef nonnull @OnigEncodingASCII, i32 noundef 0, ptr noundef nonnull @.str.5, ptr noundef nonnull %30, i32 noundef 3, ptr noundef nonnull @onig_builtin_count, ptr noundef null, i32 noundef 1, ptr noundef nonnull %1, i32 noundef 1, ptr noundef nonnull %2) #5
  %32 = icmp sgt i32 %31, -1
  br i1 %32, label %33, label %45

33:                                               ; preds = %27
  store i32 2, ptr %1, align 16, !tbaa !8
  store i32 62, ptr %2, align 16, !tbaa !10
  %34 = call i32 @onigenc_str_bytelen_null(ptr noundef nonnull @OnigEncodingASCII, ptr noundef nonnull @.str.6) #5
  %35 = sext i32 %34 to i64
  %36 = getelementptr inbounds i8, ptr @.str.6, i64 %35
  %37 = call i32 @onig_set_callout_of_name(ptr noundef nonnull @OnigEncodingASCII, i32 noundef 0, ptr noundef nonnull @.str.6, ptr noundef nonnull %36, i32 noundef 3, ptr noundef nonnull @onig_builtin_total_count, ptr noundef null, i32 noundef 1, ptr noundef nonnull %1, i32 noundef 1, ptr noundef nonnull %2) #5
  %38 = icmp sgt i32 %37, -1
  br i1 %38, label %39, label %45

39:                                               ; preds = %33
  store i32 17, ptr %1, align 16, !tbaa !8
  store i32 4, ptr %15, align 4, !tbaa !8
  %40 = getelementptr inbounds nuw i8, ptr %1, i64 8
  store i32 17, ptr %40, align 8, !tbaa !8
  %41 = call i32 @onigenc_str_bytelen_null(ptr noundef nonnull @OnigEncodingASCII, ptr noundef nonnull @.str.7) #5
  %42 = sext i32 %41 to i64
  %43 = getelementptr inbounds i8, ptr @.str.7, i64 %42
  %44 = call i32 @onig_set_callout_of_name(ptr noundef nonnull @OnigEncodingASCII, i32 noundef 0, ptr noundef nonnull @.str.7, ptr noundef nonnull %43, i32 noundef 1, ptr noundef nonnull @onig_builtin_cmp, ptr noundef null, i32 noundef 3, ptr noundef nonnull %1, i32 noundef 0, ptr noundef null) #5
  %spec.select = call i32 @llvm.smin.i32(i32 %44, i32 0)
  br label %45

45:                                               ; preds = %39, %33, %27, %21, %14, %8, %0
  %.1 = phi i32 [ %37, %33 ], [ %31, %27 ], [ %25, %21 ], [ %19, %14 ], [ %12, %8 ], [ %6, %0 ], [ %spec.select, %39 ]
  call void @llvm.lifetime.end.p0(i64 64, ptr nonnull %2) #5
  call void @llvm.lifetime.end.p0(i64 16, ptr nonnull %1) #5
  ret i32 %.1
}